; ModuleID = 'source-C-CXX/14/2292.cpp'
source_filename = "source-C-CXX/14/2292.cpp"
target datalayout = "e-m:e-p270:32:32-p271:32:32-p272:64:64-i64:64-f80:128-n8:16:32:64-S128"
target triple = "x86_64-pc-linux-gnu"

%"class.std::ios_base::Init" = type { i8 }
%"class.std::basic_istream" = type { i32 (...)**, i64, %"class.std::basic_ios" }
%"class.std::basic_ios" = type { %"class.std::ios_base", %"class.std::basic_ostream"*, i8, i8, %"class.std::basic_streambuf"*, %"class.std::ctype"*, %"class.std::num_put"*, %"class.std::num_get"* }
%"class.std::ios_base" = type { i32 (...)**, i64, i64, i32, i32, i32, %"struct.std::ios_base::_Callback_list"*, %"struct.std::ios_base::_Words", [8 x %"struct.std::ios_base::_Words"], i32, %"struct.std::ios_base::_Words"*, %"class.std::locale" }
%"struct.std::ios_base::_Callback_list" = type { %"struct.std::ios_base::_Callback_list"*, void (i32, %"class.std::ios_base"*, i32)*, i32, i32 }
%"struct.std::ios_base::_Words" = type { i8*, i64 }
%"class.std::locale" = type { %"class.std::locale::_Impl"* }
%"class.std::locale::_Impl" = type { i32, %"class.std::locale::facet"**, i64, %"class.std::locale::facet"**, i8** }
%"class.std::locale::facet" = type <{ i32 (...)**, i32, [4 x i8] }>
%"class.std::basic_ostream" = type { i32 (...)**, %"class.std::basic_ios" }
%"class.std::basic_streambuf" = type { i32 (...)**, i8*, i8*, i8*, i8*, i8*, i8*, %"class.std::locale" }
%"class.std::ctype" = type <{ %"class.std::locale::facet.base", [4 x i8], %struct.__locale_struct*, i8, [7 x i8], i32*, i32*, i16*, i8, [256 x i8], [256 x i8], i8, [6 x i8] }>
%"class.std::locale::facet.base" = type <{ i32 (...)**, i32 }>
%struct.__locale_struct = type { [13 x %struct.__locale_data*], i16*, i32*, i32*, [13 x i8*] }
%struct.__locale_data = type opaque
%"class.std::num_put" = type { %"class.std::locale::facet.base", [4 x i8] }
%"class.std::num_get" = type { %"class.std::locale::facet.base", [4 x i8] }

@_ZStL8__ioinit = internal global %"class.std::ios_base::Init" zeroinitializer, align 1
@__dso_handle = external hidden global i8
@_ZSt3cin = external global %"class.std::basic_istream", align 8
@_ZSt4cout = external global %"class.std::basic_ostream", align 8
@llvm.global_ctors = appending global [1 x { i32, void ()*, i8* }] [{ i32, void ()*, i8* } { i32 65535, void ()* @_GLOBAL__sub_I_2292.cpp, i8* null }]

declare void @_ZNSt8ios_base4InitC1Ev(%"class.std::ios_base::Init"* nonnull align 1 dereferenceable(1)) unnamed_addr #0

; Function Attrs: nounwind
declare void @_ZNSt8ios_base4InitD1Ev(%"class.std::ios_base::Init"* nonnull align 1 dereferenceable(1)) unnamed_addr #1

; Function Attrs: nofree nounwind
declare i32 @__cxa_atexit(void (i8*)*, i8*, i8*) local_unnamed_addr #2

; Function Attrs: mustprogress norecurse sspstrong uwtable
define dso_local i32 @main() local_unnamed_addr #3 {
  %1 = alloca i32, align 4
  %2 = alloca [100 x [100 x i32]], align 16
  %3 = bitcast i32* %1 to i8*
  call void @llvm.lifetime.start.p0i8(i64 4, i8* nonnull %3) #6
  %4 = call nonnull align 8 dereferenceable(16) %"class.std::basic_istream"* @_ZNSirsERi(%"class.std::basic_istream"* nonnull align 8 dereferenceable(16) @_ZSt3cin, i32* nonnull align 4 dereferenceable(4) %1)
  %5 = load i32, i32* %1, align 4, !tbaa !5
  %6 = bitcast [100 x [100 x i32]]* %2 to i8*
  call void @llvm.lifetime.start.p0i8(i64 40000, i8* nonnull %6) #6
  %7 = icmp sgt i32 %5, 0
  br i1 %7, label %8, label %69

8:                                                ; preds = %0, %64
  %9 = phi i32 [ %65, %64 ], [ %5, %0 ]
  %10 = phi i64 [ %67, %64 ], [ 0, %0 ]
  %11 = icmp sgt i32 %9, 0
  br i1 %11, label %56, label %64

12:                                               ; preds = %64
  %13 = icmp sgt i32 %65, 0
  br i1 %13, label %14, label %69

14:                                               ; preds = %12
  %15 = zext i32 %65 to i64
  br label %16

16:                                               ; preds = %14, %53
  %17 = phi i64 [ 0, %14 ], [ %54, %53 ]
  %18 = phi i32 [ %5, %14 ], [ %50, %53 ]
  %19 = phi i32 [ %5, %14 ], [ %49, %53 ]
  %20 = phi i32 [ 0, %14 ], [ %48, %53 ]
  %21 = phi i32 [ 0, %14 ], [ %47, %53 ]
  %22 = trunc i64 %17 to i32
  br label %23

23:                                               ; preds = %16, %46
  %24 = phi i64 [ 0, %16 ], [ %51, %46 ]
  %25 = phi i32 [ %18, %16 ], [ %50, %46 ]
  %26 = phi i32 [ %19, %16 ], [ %49, %46 ]
  %27 = phi i32 [ %20, %16 ], [ %48, %46 ]
  %28 = phi i32 [ %21, %16 ], [ %47, %46 ]
  %29 = getelementptr inbounds [100 x [100 x i32]], [100 x [100 x i32]]* %2, i64 0, i64 %17, i64 %24
  %30 = load i32, i32* %29, align 4, !tbaa !5
  %31 = icmp eq i32 %30, 0
  br i1 %31, label %32, label %46

32:                                               ; preds = %23
  %33 = sext i32 %28 to i64
  %34 = icmp sgt i64 %17, %33
  %35 = select i1 %34, i32 %22, i32 %28
  %36 = sext i32 %27 to i64
  %37 = icmp sgt i64 %24, %36
  %38 = trunc i64 %24 to i32
  %39 = select i1 %37, i32 %38, i32 %27
  %40 = sext i32 %26 to i64
  %41 = icmp slt i64 %17, %40
  %42 = select i1 %41, i32 %22, i32 %26
  %43 = sext i32 %25 to i64
  %44 = icmp slt i64 %24, %43
  %45 = select i1 %44, i32 %38, i32 %25
  br label %46

46:                                               ; preds = %32, %23
  %47 = phi i32 [ %28, %23 ], [ %35, %32 ]
  %48 = phi i32 [ %27, %23 ], [ %39, %32 ]
  %49 = phi i32 [ %26, %23 ], [ %42, %32 ]
  %50 = phi i32 [ %25, %23 ], [ %45, %32 ]
  %51 = add nuw nsw i64 %24, 1
  %52 = icmp eq i64 %51, %15
  br i1 %52, label %53, label %23, !llvm.loop !9

53:                                               ; preds = %46
  %54 = add nuw nsw i64 %17, 1
  %55 = icmp eq i64 %54, %15
  br i1 %55, label %69, label %16, !llvm.loop !11

56:                                               ; preds = %8, %56
  %57 = phi i64 [ %60, %56 ], [ 0, %8 ]
  %58 = getelementptr inbounds [100 x [100 x i32]], [100 x [100 x i32]]* %2, i64 0, i64 %10, i64 %57
  %59 = call nonnull align 8 dereferenceable(16) %"class.std::basic_istream"* @_ZNSirsERi(%"class.std::basic_istream"* nonnull align 8 dereferenceable(16) @_ZSt3cin, i32* nonnull align 4 dereferenceable(4) %58)
  %60 = add nuw nsw i64 %57, 1
  %61 = load i32, i32* %1, align 4, !tbaa !5
  %62 = sext i32 %61 to i64
  %63 = icmp slt i64 %60, %62
  br i1 %63, label %56, label %64, !llvm.loop !12

64:                                               ; preds = %56, %8
  %65 = phi i32 [ %9, %8 ], [ %61, %56 ]
  %66 = sext i32 %65 to i64
  %67 = add nuw nsw i64 %10, 1
  %68 = icmp slt i64 %67, %66
  br i1 %68, label %8, label %12, !llvm.loop !13

69:                                               ; preds = %53, %0, %12
  %70 = phi i32 [ 0, %12 ], [ 0, %0 ], [ %47, %53 ]
  %71 = phi i32 [ 0, %12 ], [ 0, %0 ], [ %48, %53 ]
  %72 = phi i32 [ %5, %12 ], [ %5, %0 ], [ %49, %53 ]
  %73 = phi i32 [ %5, %12 ], [ %5, %0 ], [ %50, %53 ]
  %74 = xor i32 %72, -1
  %75 = add i32 %70, %74
  %76 = xor i32 %73, -1
  %77 = add i32 %71, %76
  %78 = mul nsw i32 %77, %75
  %79 = call nonnull align 8 dereferenceable(8) %"class.std::basic_ostream"* @_ZNSolsEi(%"class.std::basic_ostream"* nonnull align 8 dereferenceable(8) @_ZSt4cout, i32 %78)
  call void @llvm.lifetime.end.p0i8(i64 40000, i8* nonnull %6) #6
  call void @llvm.lifetime.end.p0i8(i64 4, i8* nonnull %3) #6
  ret i32 0
}

; Function Attrs: argmemonly mustprogress nofree nosync nounwind willreturn
declare void @llvm.lifetime.start.p0i8(i64 immarg, i8* nocapture) #4

declare nonnull align 8 dereferenceable(16) %"class.std::basic_istream"* @_ZNSirsERi(%"class.std::basic_istream"* nonnull align 8 dereferenceable(16), i32* nonnull align 4 dereferenceable(4)) local_unnamed_addr #0

declare nonnull align 8 dereferenceable(8) %"class.std::basic_ostream"* @_ZNSolsEi(%"class.std::basic_ostream"* nonnull align 8 dereferenceable(8), i32) local_unnamed_addr #0

; Function Attrs: argmemonly mustprogress nofree nosync nounwind willreturn
declare void @llvm.lifetime.end.p0i8(i64 immarg, i8* nocapture) #4

; Function Attrs: sspstrong uwtable
define internal void @_GLOBAL__sub_I_2292.cpp() #5 section ".text.startup" {
  tail call void @_ZNSt8ios_base4InitC1Ev(%"class.std::ios_base::Init"* nonnull align 1 dereferenceable(1) @_ZStL8__ioinit)
  %1 = tail call i32 @__cxa_atexit(void (i8*)* bitcast (void (%"class.std::ios_base::Init"*)* @_ZNSt8ios_base4InitD1Ev to void (i8*)*), i8* getelementptr inbounds (%"class.std::ios_base::Init", %"class.std::ios_base::Init"* @_ZStL8__ioinit, i64 0, i32 0), i8* nonnull @__dso_handle) #6
  ret void
}


!llvm.module.flags = !{!0, !1, !2, !3}
!llvm.ident = !{!4}

!0 = !{i32 1, !"wchar_size", i32 4}
!1 = !{i32 7, !"PIC Level", i32 2}
!2 = !{i32 7, !"PIE Level", i32 2}
!3 = !{i32 7, !"uwtable", i32 1}
!4 = !{!"clang version 13.0.0"}
!5 = !{!6, !6, i64 0}
!6 = !{!"int", !7, i64 0}
!7 = !{!"omnipotent char", !8, i64 0}
!8 = !{!"Simple C++ TBAA"}
!9 = distinct !{!9, !10}
!10 = !{!"llvm.loop.mustprogress"}
!11 = distinct !{!11, !10}
!12 = distinct !{!12, !10}
!13 = distinct !{!13, !10, !14}
!14 = !{!"llvm.loop.unswitch.partial.disable"}
